; Function Attrs: mustprogress uwtable
define dso_local noundef i64 @_ZN5cmsys31SystemInformationImplementation17GetProcMemoryUsedEv(ptr noundef nonnull readnone align 8 captures(none) dereferenceable(457) %0) local_unnamed_addr #3 align 2 {
_ZN5cmsys12_GLOBAL__N_116GetFieldFromFileIxEEiPKcS3_RT_.exit:
  %1 = alloca [2 x ptr], align 16
  %2 = alloca [1 x i64], align 8
  call void @llvm.lifetime.start.p0(i64 16, ptr nonnull %1) #34
  store ptr @.str.183, ptr %1, align 16, !tbaa !133
  %3 = getelementptr inbounds nuw i8, ptr %1, i64 8
  store ptr null, ptr %3, align 8, !tbaa !133
  call void @llvm.lifetime.start.p0(i64 8, ptr nonnull %2) #34
  store i64 0, ptr %2, align 8
  %4 = call fastcc noundef i32 @_ZN5cmsys12_GLOBAL__N_117GetFieldsFromFileIxEEiPKcPS3_PT_(ptr noundef nonnull @.str.182, ptr noundef %1, ptr noundef %2)
  %.not.i = icmp eq i32 %4, 0
  %5 = load i64, ptr %2, align 8
  call void @llvm.lifetime.end.p0(i64 8, ptr nonnull %2) #34
  call void @llvm.lifetime.end.p0(i64 16, ptr nonnull %1) #34
  %.0 = select i1 %.not.i, i64 %5, i64 -1
  ret i64 %.0
}